target datalayout = "e-m:e-p270:32:32-p271:32:32-p272:64:64-i64:64-i128:128-f80:128-n8:16:32:64-S128"
target triple = "x86_64-pc-linux-gnu"

%"class.cv::Subdiv2D" = type { %"class.std::vector", %"class.std::vector.0", i32, i32, i8, i32, %"class.cv::Point_", %"class.cv::Point_" }
%"class.std::vector" = type { %"struct.std::_Vector_base" }
%"struct.std::_Vector_base" = type { %"struct.std::_Vector_base<cv::Subdiv2D::Vertex, std::allocator<cv::Subdiv2D::Vertex>>::_Vector_impl" }
%"struct.std::_Vector_base<cv::Subdiv2D::Vertex, std::allocator<cv::Subdiv2D::Vertex>>::_Vector_impl" = type { %"struct.std::_Vector_base<cv::Subdiv2D::Vertex, std::allocator<cv::Subdiv2D::Vertex>>::_Vector_impl_data" }
%"struct.std::_Vector_base<cv::Subdiv2D::Vertex, std::allocator<cv::Subdiv2D::Vertex>>::_Vector_impl_data" = type { ptr, ptr, ptr }
%"class.std::vector.0" = type { %"struct.std::_Vector_base.1" }
%"struct.std::_Vector_base.1" = type { %"struct.std::_Vector_base<cv::Subdiv2D::QuadEdge, std::allocator<cv::Subdiv2D::QuadEdge>>::_Vector_impl" }
%"struct.std::_Vector_base<cv::Subdiv2D::QuadEdge, std::allocator<cv::Subdiv2D::QuadEdge>>::_Vector_impl" = type { %"struct.std::_Vector_base<cv::Subdiv2D::QuadEdge, std::allocator<cv::Subdiv2D::QuadEdge>>::_Vector_impl_data" }
%"struct.std::_Vector_base<cv::Subdiv2D::QuadEdge, std::allocator<cv::Subdiv2D::QuadEdge>>::_Vector_impl_data" = type { ptr, ptr, ptr }
%"class.cv::Point_" = type { float, float }
%"struct.cv::Subdiv2D::QuadEdge" = type { [4 x i32], [4 x i32] }
%"struct.cv::Subdiv2D::Vertex" = type { i32, i32, %"class.cv::Point_" }

; Function Attrs: mustprogress nounwind uwtable
define linkonce_odr hidden noundef nonnull align 4 dereferenceable(16) ptr @_ZNKSt6vectorIN2cv8Subdiv2D6VertexESaIS2_EEixEm(ptr noundef nonnull align 8 dereferenceable(24) %0, i64 noundef %1) #0 comdat align 2 {
  %3 = alloca ptr, align 8
  %4 = alloca i64, align 8
  store ptr %0, ptr %3, align 8, !tbaa !22
  store i64 %1, ptr %4, align 8, !tbaa !12
  %5 = load ptr, ptr %3, align 8
  %6 = getelementptr inbounds nuw %"struct.std::_Vector_base", ptr %5, i32 0, i32 0
  %7 = getelementptr inbounds nuw %"struct.std::_Vector_base<cv::Subdiv2D::Vertex, std::allocator<cv::Subdiv2D::Vertex>>::_Vector_impl_data", ptr %6, i32 0, i32 0
  %8 = load ptr, ptr %7, align 8, !tbaa !24
  %9 = load i64, ptr %4, align 8, !tbaa !12
  %10 = getelementptr inbounds nuw %"struct.cv::Subdiv2D::Vertex", ptr %8, i64 %9
  ret ptr %10
}

; Function Attrs: mustprogress nounwind uwtable
define linkonce_odr hidden noundef nonnull align 4 dereferenceable(32) ptr @_ZNKSt6vectorIN2cv8Subdiv2D8QuadEdgeESaIS2_EEixEm(ptr noundef nonnull align 8 dereferenceable(24) %0, i64 noundef %1) #0 comdat align 2 {
  %3 = alloca ptr, align 8
  %4 = alloca i64, align 8
  store ptr %0, ptr %3, align 8, !tbaa !10
  store i64 %1, ptr %4, align 8, !tbaa !12
  %5 = load ptr, ptr %3, align 8
  %6 = getelementptr inbounds nuw %"struct.std::_Vector_base.1", ptr %5, i32 0, i32 0
  %7 = getelementptr inbounds nuw %"struct.std::_Vector_base<cv::Subdiv2D::QuadEdge, std::allocator<cv::Subdiv2D::QuadEdge>>::_Vector_impl_data", ptr %6, i32 0, i32 0
  %8 = load ptr, ptr %7, align 8, !tbaa !14
  %9 = load i64, ptr %4, align 8, !tbaa !12
  %10 = getelementptr inbounds nuw %"struct.cv::Subdiv2D::QuadEdge", ptr %8, i64 %9
  ret ptr %10
}

; Function Attrs: mustprogress nounwind uwtable
define noundef i32 @_ZNK2cv8Subdiv2D7edgeOrgEiPNS_6Point_IfEE(ptr noundef nonnull align 8 dereferenceable(80) %0, i32 noundef %1, ptr noundef %2) #0 align 2 {
  %4 = alloca ptr, align 8
  %5 = alloca i32, align 4
  %6 = alloca ptr, align 8
  %7 = alloca i32, align 4
  store ptr %0, ptr %4, align 8, !tbaa !3
  store i32 %1, ptr %5, align 4, !tbaa !8
  store ptr %2, ptr %6, align 8, !tbaa !17
  %8 = load ptr, ptr %4, align 8
  call void @llvm.lifetime.start.p0(i64 4, ptr %7) #20
  %9 = getelementptr inbounds nuw %"class.cv::Subdiv2D", ptr %8, i32 0, i32 1
  %10 = load i32, ptr %5, align 4, !tbaa !8
  %11 = ashr i32 %10, 2
  %12 = sext i32 %11 to i64
  %13 = call noundef nonnull align 4 dereferenceable(32) ptr @_ZNKSt6vectorIN2cv8Subdiv2D8QuadEdgeESaIS2_EEixEm(ptr noundef nonnull align 8 dereferenceable(24) %9, i64 noundef %12) #20
  %14 = getelementptr inbounds nuw %"struct.cv::Subdiv2D::QuadEdge", ptr %13, i32 0, i32 1
  %15 = load i32, ptr %5, align 4, !tbaa !8
  %16 = and i32 %15, 3
  %17 = sext i32 %16 to i64
  %18 = getelementptr inbounds [4 x i32], ptr %14, i64 0, i64 %17
  %19 = load i32, ptr %18, align 4, !tbaa !8
  store i32 %19, ptr %7, align 4, !tbaa !8
  %20 = load ptr, ptr %6, align 8, !tbaa !17
  %21 = icmp ne ptr %20, null
  br i1 %21, label %22, label %29

22:                                               ; preds = %3
  %23 = getelementptr inbounds nuw %"class.cv::Subdiv2D", ptr %8, i32 0, i32 0
  %24 = load i32, ptr %7, align 4, !tbaa !8
  %25 = sext i32 %24 to i64
  %26 = call noundef nonnull align 4 dereferenceable(16) ptr @_ZNKSt6vectorIN2cv8Subdiv2D6VertexESaIS2_EEixEm(ptr noundef nonnull align 8 dereferenceable(24) %23, i64 noundef %25) #20
  %27 = getelementptr inbounds nuw %"struct.cv::Subdiv2D::Vertex", ptr %26, i32 0, i32 2
  %28 = load ptr, ptr %6, align 8, !tbaa !17
  call void @llvm.memcpy.p0.p0.i64(ptr align 4 %28, ptr align 4 %27, i64 8, i1 false), !tbaa.struct !19
  br label %29

29:                                               ; preds = %22, %3
  %30 = load i32, ptr %7, align 4, !tbaa !8
  call void @llvm.lifetime.end.p0(i64 4, ptr %7) #20
  ret i32 %30
}