; Function Attrs: mustprogress nofree norecurse nosync nounwind willreturn memory(read, argmem: readwrite, inaccessiblemem: none) uwtable
define noundef i32 @_ZNK2cv8Subdiv2D7edgeOrgEiPNS_6Point_IfEE(ptr noundef nonnull readonly align 8 captures(none) dereferenceable(80) %0, i32 noundef %1, ptr noundef writeonly %2) local_unnamed_addr #2 align 2 {
  %4 = getelementptr inbounds nuw i8, ptr %0, i64 24
  %5 = ashr i32 %1, 2
  %6 = sext i32 %5 to i64
  %7 = load ptr, ptr %4, align 8, !tbaa !3
  %8 = and i32 %1, 3
  %9 = zext nneg i32 %8 to i64
  %10 = getelementptr inbounds nuw %"struct.cv::Subdiv2D::QuadEdge", ptr %7, i64 %6, i32 1, i64 %9
  %11 = load i32, ptr %10, align 4, !tbaa !9
  %.not = icmp eq ptr %2, null
  br i1 %.not, label %17, label %12

12:                                               ; preds = %3
  %13 = sext i32 %11 to i64
  %14 = load ptr, ptr %0, align 8, !tbaa !11
  %15 = getelementptr inbounds nuw %"struct.cv::Subdiv2D::Vertex", ptr %14, i64 %13, i32 2
  %16 = load i64, ptr %15, align 4
  store i64 %16, ptr %2, align 4
  br label %17

17:                                               ; preds = %12, %3
  ret i32 %11
}